target datalayout = "e-m:e-p270:32:32-p271:32:32-p272:64:64-i64:64-i128:128-f80:128-n8:16:32:64-S128"
target triple = "x86_64-unknown-linux-gnu"

%"class.grpc_core::Timestamp" = type { i64 }
%"class.grpc_core::DebugLocation" = type { i8 }
%"class.absl::lts_20230802::Status" = type { i64 }
%struct.grpc_deadline_state = type { ptr, ptr, ptr, ptr, ptr, %struct.grpc_closure, ptr }
%struct.grpc_closure = type { %union.anon, ptr, ptr, %union.anon.0 }
%union.anon = type { ptr }
%union.anon.0 = type { i64 }
%struct.grpc_call_element_args = type { ptr, ptr, ptr, ptr, double, %"class.grpc_core::Timestamp", ptr, ptr }
%struct.start_timer_after_init_state = type { i8, ptr, %"class.grpc_core::Timestamp", %struct.grpc_closure }

@.str = private unnamed_addr constant [136 x i8] c"generated/home/dtcxzyw/WorkSpace/Projects/compilers/llvm-opt-benchmark/bench/grpc/grpc/src/core/ext/filters/deadline/deadline_filter.cc\00", align 1

; Function Attrs: mustprogress nounwind uwtable
define linkonce_odr noundef i64 @_ZN4absl12lts_202308026Status16CodeToInlinedRepENS0_10StatusCodeE(i32 noundef %code) #5 comdat align 2 {
entry:
  %code.addr = alloca i32, align 4
  store i32 %code, ptr %code.addr, align 4
  %0 = load i32, ptr %code.addr, align 4
  %conv = sext i32 %0 to i64
  %shl = shl i64 %conv, 2
  ret i64 %shl
}

; Function Attrs: mustprogress uwtable
define linkonce_odr void @_ZN4absl12lts_202308026StatusC2Ev(ptr noundef nonnull align 8 dereferenceable(8) %this) unnamed_addr #4 comdat align 2 {
entry:
  %this.addr = alloca ptr, align 8
  store ptr %this, ptr %this.addr, align 8
  %this1 = load ptr, ptr %this.addr, align 8
  %rep_ = getelementptr inbounds %"class.absl::lts_20230802::Status", ptr %this1, i32 0, i32 0
  %call = call noundef i64 @_ZN4absl12lts_202308026Status16CodeToInlinedRepENS0_10StatusCodeE(i32 noundef 0)
  store i64 %call, ptr %rep_, align 8
  ret void
}

; Function Attrs: mustprogress nounwind uwtable
define linkonce_odr void @_ZN9grpc_core9TimestampC2El(ptr noundef nonnull align 8 dereferenceable(8) %this, i64 noundef %millis) unnamed_addr #5 comdat align 2 {
entry:
  %this.addr = alloca ptr, align 8
  %millis.addr = alloca i64, align 8
  store ptr %this, ptr %this.addr, align 8
  store i64 %millis, ptr %millis.addr, align 8
  %this1 = load ptr, ptr %this.addr, align 8
  %millis_ = getelementptr inbounds %"class.grpc_core::Timestamp", ptr %this1, i32 0, i32 0
  %0 = load i64, ptr %millis.addr, align 8
  store i64 %0, ptr %millis_, align 8
  ret void
}

; Function Attrs: mustprogress nounwind uwtable
define linkonce_odr noundef i64 @_ZNSt14numeric_limitsIlE3maxEv() #5 comdat align 2 {
entry:
  ret i64 9223372036854775807
}

; Function Attrs: mustprogress uwtable
define linkonce_odr void @_ZN4absl12lts_202308028OkStatusEv(ptr noalias sret(%"class.absl::lts_20230802::Status") align 8 %agg.result) #4 comdat {
entry:
  %result.ptr = alloca ptr, align 8
  store ptr %agg.result, ptr %result.ptr, align 8
  call void @_ZN4absl12lts_202308026StatusC2Ev(ptr noundef nonnull align 8 dereferenceable(8) %agg.result)
  ret void
}

; Function Attrs: mustprogress nounwind uwtable
define linkonce_odr void @_ZN9grpc_core13DebugLocationC2EPKci(ptr noundef nonnull align 1 dereferenceable(1) %this, ptr noundef %0, i32 noundef %1) unnamed_addr #5 comdat align 2 {
entry:
  %this.addr = alloca ptr, align 8
  %.addr = alloca ptr, align 8
  %.addr1 = alloca i32, align 4
  store ptr %this, ptr %this.addr, align 8
  store ptr %0, ptr %.addr, align 8
  store i32 %1, ptr %.addr1, align 4
  ret void
}

; Function Attrs: mustprogress nounwind uwtable
define linkonce_odr noundef ptr @_Z17grpc_closure_initP12grpc_closurePFvPvN4absl12lts_202308026StatusEES1_(ptr noundef %closure, ptr noundef %cb, ptr noundef %cb_arg) #5 comdat {
entry:
  %closure.addr = alloca ptr, align 8
  %cb.addr = alloca ptr, align 8
  %cb_arg.addr = alloca ptr, align 8
  store ptr %closure, ptr %closure.addr, align 8
  store ptr %cb, ptr %cb.addr, align 8
  store ptr %cb_arg, ptr %cb_arg.addr, align 8
  %0 = load ptr, ptr %cb.addr, align 8
  %1 = load ptr, ptr %closure.addr, align 8
  %cb1 = getelementptr inbounds %struct.grpc_closure, ptr %1, i32 0, i32 1
  store ptr %0, ptr %cb1, align 8
  %2 = load ptr, ptr %cb_arg.addr, align 8
  %3 = load ptr, ptr %closure.addr, align 8
  %cb_arg2 = getelementptr inbounds %struct.grpc_closure, ptr %3, i32 0, i32 2
  store ptr %2, ptr %cb_arg2, align 8
  %4 = load ptr, ptr %closure.addr, align 8
  %error_data = getelementptr inbounds %struct.grpc_closure, ptr %4, i32 0, i32 3
  store i64 0, ptr %error_data, align 8
  %5 = load ptr, ptr %closure.addr, align 8
  ret ptr %5
}

; Function Attrs: mustprogress nounwind uwtable
define linkonce_odr void @_ZN28start_timer_after_init_stateC2EP19grpc_deadline_stateN9grpc_core9TimestampE(ptr noundef nonnull align 8 dereferenceable(56) %this, ptr noundef %deadline_state, i64 %deadline.coerce) unnamed_addr #5 comdat align 2 {
entry:
  %deadline = alloca %"class.grpc_core::Timestamp", align 8
  %this.addr = alloca ptr, align 8
  %deadline_state.addr = alloca ptr, align 8
  %coerce.dive = getelementptr inbounds %"class.grpc_core::Timestamp", ptr %deadline, i32 0, i32 0
  store i64 %deadline.coerce, ptr %coerce.dive, align 8
  store ptr %this, ptr %this.addr, align 8
  store ptr %deadline_state, ptr %deadline_state.addr, align 8
  %this1 = load ptr, ptr %this.addr, align 8
  %in_call_combiner = getelementptr inbounds %struct.start_timer_after_init_state, ptr %this1, i32 0, i32 0
  store i8 0, ptr %in_call_combiner, align 8
  %deadline_state2 = getelementptr inbounds %struct.start_timer_after_init_state, ptr %this1, i32 0, i32 1
  %0 = load ptr, ptr %deadline_state.addr, align 8
  store ptr %0, ptr %deadline_state2, align 8
  %deadline3 = getelementptr inbounds %struct.start_timer_after_init_state, ptr %this1, i32 0, i32 2
  call void @llvm.memcpy.p0.p0.i64(ptr align 8 %deadline3, ptr align 8 %deadline, i64 8, i1 false)
  ret void
}

; Function Attrs: mustprogress nounwind uwtable
define linkonce_odr noundef zeroext i1 @_ZNK9grpc_core9TimestampneES0_(ptr noundef nonnull align 8 dereferenceable(8) %this, i64 %other.coerce) #5 comdat align 2 {
entry:
  %other = alloca %"class.grpc_core::Timestamp", align 8
  %this.addr = alloca ptr, align 8
  %coerce.dive = getelementptr inbounds %"class.grpc_core::Timestamp", ptr %other, i32 0, i32 0
  store i64 %other.coerce, ptr %coerce.dive, align 8
  store ptr %this, ptr %this.addr, align 8
  %this1 = load ptr, ptr %this.addr, align 8
  %millis_ = getelementptr inbounds %"class.grpc_core::Timestamp", ptr %this1, i32 0, i32 0
  %0 = load i64, ptr %millis_, align 8
  %millis_2 = getelementptr inbounds %"class.grpc_core::Timestamp", ptr %other, i32 0, i32 0
  %1 = load i64, ptr %millis_2, align 8
  %cmp = icmp ne i64 %0, %1
  ret i1 %cmp
}

; Function Attrs: mustprogress uwtable
define linkonce_odr i64 @_ZN9grpc_core9Timestamp9InfFutureEv() #4 comdat align 2 {
entry:
  %retval = alloca %"class.grpc_core::Timestamp", align 8
  %call = call noundef i64 @_ZNSt14numeric_limitsIlE3maxEv() #3
  call void @_ZN9grpc_core9TimestampC2El(ptr noundef nonnull align 8 dereferenceable(8) %retval, i64 noundef %call)
  %coerce.dive = getelementptr inbounds %"class.grpc_core::Timestamp", ptr %retval, i32 0, i32 0
  %0 = load i64, ptr %coerce.dive, align 8
  ret i64 %0
}

; Function Attrs: mustprogress uwtable
define void @_ZN19grpc_deadline_stateC2EP17grpc_call_elementRK22grpc_call_element_argsN9grpc_core9TimestampE(ptr noundef nonnull align 8 dereferenceable(80) %this, ptr noundef %elem, ptr noundef nonnull align 8 dereferenceable(64) %args, i64 %deadline.coerce) unnamed_addr #4 align 2 personality ptr @__gxx_personality_v0 {
entry:
  %deadline = alloca %"class.grpc_core::Timestamp", align 8
  %this.addr = alloca ptr, align 8
  %elem.addr = alloca ptr, align 8
  %args.addr = alloca ptr, align 8
  %agg.tmp = alloca %"class.grpc_core::Timestamp", align 8
  %state = alloca ptr, align 8
  %agg.tmp10 = alloca %"class.grpc_core::Timestamp", align 8
  %exn.slot = alloca ptr, align 8
  %ehselector.slot = alloca i32, align 4
  %ref.tmp = alloca %"class.grpc_core::DebugLocation", align 1
  %agg.tmp14 = alloca %"class.absl::lts_20230802::Status", align 8
  %coerce.dive = getelementptr inbounds %"class.grpc_core::Timestamp", ptr %deadline, i32 0, i32 0
  store i64 %deadline.coerce, ptr %coerce.dive, align 8
  store ptr %this, ptr %this.addr, align 8
  store ptr %elem, ptr %elem.addr, align 8
  store ptr %args, ptr %args.addr, align 8
  %this1 = load ptr, ptr %this.addr, align 8
  %elem2 = getelementptr inbounds %struct.grpc_deadline_state, ptr %this1, i32 0, i32 0
  %0 = load ptr, ptr %elem.addr, align 8
  store ptr %0, ptr %elem2, align 8
  %call_stack = getelementptr inbounds %struct.grpc_deadline_state, ptr %this1, i32 0, i32 1
  %1 = load ptr, ptr %args.addr, align 8
  %call_stack3 = getelementptr inbounds %struct.grpc_call_element_args, ptr %1, i32 0, i32 0
  %2 = load ptr, ptr %call_stack3, align 8
  store ptr %2, ptr %call_stack, align 8
  %call_combiner = getelementptr inbounds %struct.grpc_deadline_state, ptr %this1, i32 0, i32 2
  %3 = load ptr, ptr %args.addr, align 8
  %call_combiner4 = getelementptr inbounds %struct.grpc_call_element_args, ptr %3, i32 0, i32 7
  %4 = load ptr, ptr %call_combiner4, align 8
  store ptr %4, ptr %call_combiner, align 8
  %arena = getelementptr inbounds %struct.grpc_deadline_state, ptr %this1, i32 0, i32 3
  %5 = load ptr, ptr %args.addr, align 8
  %arena5 = getelementptr inbounds %struct.grpc_call_element_args, ptr %5, i32 0, i32 6
  %6 = load ptr, ptr %arena5, align 8
  store ptr %6, ptr %arena, align 8
  %timer_state = getelementptr inbounds %struct.grpc_deadline_state, ptr %this1, i32 0, i32 4
  store ptr null, ptr %timer_state, align 8
  %call = call i64 @_ZN9grpc_core9Timestamp9InfFutureEv()
  %coerce.dive6 = getelementptr inbounds %"class.grpc_core::Timestamp", ptr %agg.tmp, i32 0, i32 0
  store i64 %call, ptr %coerce.dive6, align 8
  %coerce.dive7 = getelementptr inbounds %"class.grpc_core::Timestamp", ptr %agg.tmp, i32 0, i32 0
  %7 = load i64, ptr %coerce.dive7, align 8
  %call8 = call noundef zeroext i1 @_ZNK9grpc_core9TimestampneES0_(ptr noundef nonnull align 8 dereferenceable(8) %deadline, i64 %7)
  br i1 %call8, label %if.then, label %if.end

if.then:                                          ; preds = %entry
  %call9 = call noalias noundef nonnull ptr @_Znwm(i64 noundef 56) #15
  call void @llvm.memcpy.p0.p0.i64(ptr align 8 %agg.tmp10, ptr align 8 %deadline, i64 8, i1 false)
  %coerce.dive11 = getelementptr inbounds %"class.grpc_core::Timestamp", ptr %agg.tmp10, i32 0, i32 0
  %8 = load i64, ptr %coerce.dive11, align 8
  invoke void @_ZN28start_timer_after_init_stateC2EP19grpc_deadline_stateN9grpc_core9TimestampE(ptr noundef nonnull align 8 dereferenceable(56) %call9, ptr noundef %this1, i64 %8)
          to label %invoke.cont unwind label %lpad

invoke.cont:                                      ; preds = %if.then
  store ptr %call9, ptr %state, align 8
  %9 = load ptr, ptr %state, align 8
  %closure = getelementptr inbounds %struct.start_timer_after_init_state, ptr %9, i32 0, i32 3
  %10 = load ptr, ptr %state, align 8
  %call12 = call noundef ptr @_Z17grpc_closure_initP12grpc_closurePFvPvN4absl12lts_202308026StatusEES1_(ptr noundef %closure, ptr noundef @_ZL22start_timer_after_initPvN4absl12lts_202308026StatusE, ptr noundef %10)
  call void @_ZN9grpc_core13DebugLocationC2EPKci(ptr noundef nonnull align 1 dereferenceable(1) %ref.tmp, ptr noundef @.str, i32 noundef 217)
  %11 = load ptr, ptr %state, align 8
  %closure13 = getelementptr inbounds %struct.start_timer_after_init_state, ptr %11, i32 0, i32 3
  call void @_ZN4absl12lts_202308028OkStatusEv(ptr sret(%"class.absl::lts_20230802::Status") align 8 %agg.tmp14)
  invoke void @_ZN9grpc_core7ExecCtx3RunERKNS_13DebugLocationEP12grpc_closureN4absl12lts_202308026StatusE(ptr noundef nonnull align 1 dereferenceable(1) %ref.tmp, ptr noundef %closure13, ptr noundef %agg.tmp14)
          to label %invoke.cont16 unwind label %lpad15

invoke.cont16:                                    ; preds = %invoke.cont
  call void @_ZN4absl12lts_202308026StatusD2Ev(ptr noundef nonnull align 8 dereferenceable(8) %agg.tmp14) #3
  br label %if.end

lpad:                                             ; preds = %if.then
  %12 = landingpad { ptr, i32 }
          cleanup
  %13 = extractvalue { ptr, i32 } %12, 0
  store ptr %13, ptr %exn.slot, align 8
  %14 = extractvalue { ptr, i32 } %12, 1
  store i32 %14, ptr %ehselector.slot, align 4
  call void @_ZdlPv(ptr noundef %call9) #16
  br label %eh.resume

lpad15:                                           ; preds = %invoke.cont
  %15 = landingpad { ptr, i32 }
          cleanup
  %16 = extractvalue { ptr, i32 } %15, 0
  store ptr %16, ptr %exn.slot, align 8
  %17 = extractvalue { ptr, i32 } %15, 1
  store i32 %17, ptr %ehselector.slot, align 4
  call void @_ZN4absl12lts_202308026StatusD2Ev(ptr noundef nonnull align 8 dereferenceable(8) %agg.tmp14) #3
  br label %eh.resume

if.end:                                           ; preds = %invoke.cont16, %entry
  ret void

eh.resume:                                        ; preds = %lpad15, %lpad
  %exn = load ptr, ptr %exn.slot, align 8
  %sel = load i32, ptr %ehselector.slot, align 4
  %lpad.val = insertvalue { ptr, i32 } poison, ptr %exn, 0
  %lpad.val17 = insertvalue { ptr, i32 } %lpad.val, i32 %sel, 1
  resume { ptr, i32 } %lpad.val17
}