; Function Attrs: mustprogress uwtable
define void @_ZN19grpc_deadline_stateC2EP17grpc_call_elementRK22grpc_call_element_argsN9grpc_core9TimestampE(ptr noundef nonnull align 8 dereferenceable(80) %this, ptr noundef %elem, ptr nocapture noundef nonnull readonly align 8 dereferenceable(64) %args, i64 %deadline.coerce) unnamed_addr #3 align 2 personality ptr @__gxx_personality_v0 {
entry:
  %ref.tmp = alloca %"class.grpc_core::DebugLocation", align 1
  %agg.tmp14 = alloca %"class.absl::lts_20230802::Status", align 8
  store ptr %elem, ptr %this, align 8
  %call_stack = getelementptr inbounds i8, ptr %this, i64 8
  %0 = load ptr, ptr %args, align 8
  store ptr %0, ptr %call_stack, align 8
  %call_combiner = getelementptr inbounds i8, ptr %this, i64 16
  %call_combiner4 = getelementptr inbounds i8, ptr %args, i64 56
  %1 = load ptr, ptr %call_combiner4, align 8
  store ptr %1, ptr %call_combiner, align 8
  %arena = getelementptr inbounds i8, ptr %this, i64 24
  %arena5 = getelementptr inbounds i8, ptr %args, i64 48
  %2 = load ptr, ptr %arena5, align 8
  store ptr %2, ptr %arena, align 8
  %timer_state = getelementptr inbounds i8, ptr %this, i64 32
  store ptr null, ptr %timer_state, align 8
  %cmp.i.not = icmp eq i64 %deadline.coerce, 9223372036854775807
  br i1 %cmp.i.not, label %if.end, label %if.then

if.then:                                          ; preds = %entry
  %call9 = tail call noalias noundef nonnull dereferenceable(56) ptr @_Znwm(i64 noundef 56) #21
  store i8 0, ptr %call9, align 8
  %deadline_state2.i = getelementptr inbounds i8, ptr %call9, i64 8
  store ptr %this, ptr %deadline_state2.i, align 8
  %deadline3.i = getelementptr inbounds i8, ptr %call9, i64 16
  store i64 %deadline.coerce, ptr %deadline3.i, align 8
  %closure = getelementptr inbounds i8, ptr %call9, i64 24
  %cb1.i = getelementptr inbounds i8, ptr %call9, i64 32
  store ptr @_ZL22start_timer_after_initPvN4absl12lts_202308026StatusE, ptr %cb1.i, align 8
  %cb_arg2.i = getelementptr inbounds i8, ptr %call9, i64 40
  store ptr %call9, ptr %cb_arg2.i, align 8
  %error_data.i = getelementptr inbounds i8, ptr %call9, i64 48
  store i64 0, ptr %error_data.i, align 8
  store i64 0, ptr %agg.tmp14, align 8, !alias.scope !4
  invoke void @_ZN9grpc_core7ExecCtx3RunERKNS_13DebugLocationEP12grpc_closureN4absl12lts_202308026StatusE(ptr noundef nonnull align 1 dereferenceable(1) %ref.tmp, ptr noundef nonnull %closure, ptr noundef nonnull %agg.tmp14)
          to label %invoke.cont16 unwind label %lpad15

invoke.cont16:                                    ; preds = %if.then
  %3 = load i64, ptr %agg.tmp14, align 8
  %and.i.i.i = and i64 %3, 1
  %cmp.i.i.i = icmp eq i64 %and.i.i.i, 0
  br i1 %cmp.i.i.i, label %if.end, label %if.then.i.i

if.then.i.i:                                      ; preds = %invoke.cont16
  invoke void @_ZN4absl12lts_202308026Status15UnrefNonInlinedEm(i64 noundef %3)
          to label %if.end unwind label %terminate.lpad.i

terminate.lpad.i:                                 ; preds = %if.then.i.i
  %4 = landingpad { ptr, i32 }
          catch ptr null
  %5 = extractvalue { ptr, i32 } %4, 0
  call void @__clang_call_terminate(ptr %5) #22
  unreachable

lpad15:                                           ; preds = %if.then
  %6 = landingpad { ptr, i32 }
          cleanup
  call void @_ZN4absl12lts_202308026StatusD2Ev(ptr noundef nonnull align 8 dereferenceable(8) %agg.tmp14) #23
  resume { ptr, i32 } %6

if.end:                                           ; preds = %if.then.i.i, %invoke.cont16, %entry
  ret void
}